; Function Attrs: mustprogress uwtable
define hidden void @_ZN5o3dgc16Arithmetic_Codec13start_encoderEv(ptr noundef nonnull align 8 captures(none) dereferenceable(44) %0) local_unnamed_addr #5 align 2 {
  %2 = getelementptr inbounds nuw i8, ptr %0, i64 40
  %3 = load i32, ptr %2, align 8
  %.not = icmp eq i32 %3, 0
  br i1 %.not, label %5, label %4

4:                                                ; preds = %1
  tail call fastcc void @_ZN5o3dgcL8AC_ErrorEPKc(ptr noundef nonnull @.str.2) #16
  unreachable

5:                                                ; preds = %1
  %6 = getelementptr inbounds nuw i8, ptr %0, i64 36
  %7 = load i32, ptr %6, align 4
  %8 = icmp eq i32 %7, 0
  br i1 %8, label %9, label %10

9:                                                ; preds = %5
  tail call fastcc void @_ZN5o3dgcL8AC_ErrorEPKc(ptr noundef nonnull @.str.3) #16
  unreachable

10:                                               ; preds = %5
  store i32 1, ptr %2, align 8
  %11 = getelementptr inbounds nuw i8, ptr %0, i64 24
  store i32 0, ptr %11, align 8
  %12 = getelementptr inbounds nuw i8, ptr %0, i64 32
  store i32 -1, ptr %12, align 8
  %13 = load ptr, ptr %0, align 8
  %14 = getelementptr inbounds nuw i8, ptr %0, i64 16
  store ptr %13, ptr %14, align 8
  ret void
}